; Function Attrs: nounwind uwtable
define internal range(i32 -1, 1) i32 @_get_my_list(ptr noundef %0, ptr noundef captures(none) %1) #0 {
  %3 = getelementptr inbounds nuw i8, ptr %0, i64 16
  %4 = load i32, ptr %3, align 8
  %5 = load i32, ptr %1, align 8
  %6 = add i32 %5, %4
  store i32 %6, ptr %1, align 8
  %7 = icmp ugt i32 %6, 1073741824
  br i1 %7, label %11, label %8

8:                                                ; preds = %2
  %9 = getelementptr inbounds nuw i8, ptr %1, i64 8
  %10 = load ptr, ptr %9, align 8
  tail call void @slurm_list_enqueue(ptr noundef %10, ptr noundef nonnull %0) #13
  br label %11

11:                                               ; preds = %2, %8
  %.0 = phi i32 [ 0, %8 ], [ -1, %2 ]
  ret i32 %.0
}